target datalayout = "e-m:e-p270:32:32-p271:32:32-p272:64:64-i64:64-i128:128-f80:128-n8:16:32:64-S128"
target triple = "x86_64-pc-linux-gnu"

%struct.yyguts_t = type { ptr, ptr, ptr, i64, i64, ptr, i8, i32, i32, ptr, i32, i32, i32, i32, i32, ptr, i32, ptr, i32, i32, ptr, i32, i32 }
%struct.yy_buffer_state = type { ptr, ptr, ptr, i32, i32, i32, i32, i32, i32, i32, i32, i32 }

; Function Attrs: nounwind null_pointer_is_valid sspstrong uwtable
define internal void @busmaster__load_buffer_state(ptr noundef %0) #2 {
  %2 = alloca ptr, align 8
  %3 = alloca ptr, align 8
  store ptr %0, ptr %2, align 8
  call void @llvm.lifetime.start.p0(i64 8, ptr %3) #12
  %4 = load ptr, ptr %2, align 8
  store ptr %4, ptr %3, align 8
  %5 = load ptr, ptr %3, align 8
  %6 = getelementptr inbounds nuw %struct.yyguts_t, ptr %5, i32 0, i32 5
  %7 = load ptr, ptr %6, align 8
  %8 = load ptr, ptr %3, align 8
  %9 = getelementptr inbounds nuw %struct.yyguts_t, ptr %8, i32 0, i32 3
  %10 = load i64, ptr %9, align 8
  %11 = getelementptr ptr, ptr %7, i64 %10
  %12 = load ptr, ptr %11, align 8
  %13 = getelementptr inbounds nuw %struct.yy_buffer_state, ptr %12, i32 0, i32 4
  %14 = load i32, ptr %13, align 4
  %15 = load ptr, ptr %3, align 8
  %16 = getelementptr inbounds nuw %struct.yyguts_t, ptr %15, i32 0, i32 7
  store i32 %14, ptr %16, align 4
  %17 = load ptr, ptr %3, align 8
  %18 = getelementptr inbounds nuw %struct.yyguts_t, ptr %17, i32 0, i32 5
  %19 = load ptr, ptr %18, align 8
  %20 = load ptr, ptr %3, align 8
  %21 = getelementptr inbounds nuw %struct.yyguts_t, ptr %20, i32 0, i32 3
  %22 = load i64, ptr %21, align 8
  %23 = getelementptr ptr, ptr %19, i64 %22
  %24 = load ptr, ptr %23, align 8
  %25 = getelementptr inbounds nuw %struct.yy_buffer_state, ptr %24, i32 0, i32 2
  %26 = load ptr, ptr %25, align 8
  %27 = load ptr, ptr %3, align 8
  %28 = getelementptr inbounds nuw %struct.yyguts_t, ptr %27, i32 0, i32 9
  store ptr %26, ptr %28, align 8
  %29 = load ptr, ptr %3, align 8
  %30 = getelementptr inbounds nuw %struct.yyguts_t, ptr %29, i32 0, i32 20
  store ptr %26, ptr %30, align 8
  %31 = load ptr, ptr %3, align 8
  %32 = getelementptr inbounds nuw %struct.yyguts_t, ptr %31, i32 0, i32 5
  %33 = load ptr, ptr %32, align 8
  %34 = load ptr, ptr %3, align 8
  %35 = getelementptr inbounds nuw %struct.yyguts_t, ptr %34, i32 0, i32 3
  %36 = load i64, ptr %35, align 8
  %37 = getelementptr ptr, ptr %33, i64 %36
  %38 = load ptr, ptr %37, align 8
  %39 = getelementptr inbounds nuw %struct.yy_buffer_state, ptr %38, i32 0, i32 0
  %40 = load ptr, ptr %39, align 8
  %41 = load ptr, ptr %3, align 8
  %42 = getelementptr inbounds nuw %struct.yyguts_t, ptr %41, i32 0, i32 1
  store ptr %40, ptr %42, align 8
  %43 = load ptr, ptr %3, align 8
  %44 = getelementptr inbounds nuw %struct.yyguts_t, ptr %43, i32 0, i32 9
  %45 = load ptr, ptr %44, align 8
  %46 = load i8, ptr %45, align 1
  %47 = load ptr, ptr %3, align 8
  %48 = getelementptr inbounds nuw %struct.yyguts_t, ptr %47, i32 0, i32 6
  store i8 %46, ptr %48, align 8
  call void @llvm.lifetime.end.p0(i64 8, ptr %3) #12
  ret void
}

; Function Attrs: nounwind null_pointer_is_valid sspstrong uwtable
define hidden void @busmaster__delete_buffer(ptr noundef %0, ptr noundef %1) #2 {
  %3 = alloca ptr, align 8
  %4 = alloca ptr, align 8
  %5 = alloca ptr, align 8
  %6 = alloca i32, align 4
  store ptr %0, ptr %3, align 8
  store ptr %1, ptr %4, align 8
  call void @llvm.lifetime.start.p0(i64 8, ptr %5) #12
  %7 = load ptr, ptr %4, align 8
  store ptr %7, ptr %5, align 8
  %8 = load ptr, ptr %3, align 8
  %9 = icmp ne ptr %8, null
  br i1 %9, label %11, label %10

10:                                               ; preds = %2
  store i32 1, ptr %6, align 4
  br label %49

11:                                               ; preds = %2
  %12 = load ptr, ptr %3, align 8
  %13 = load ptr, ptr %5, align 8
  %14 = getelementptr inbounds nuw %struct.yyguts_t, ptr %13, i32 0, i32 5
  %15 = load ptr, ptr %14, align 8
  %16 = icmp ne ptr %15, null
  br i1 %16, label %17, label %26

17:                                               ; preds = %11
  %18 = load ptr, ptr %5, align 8
  %19 = getelementptr inbounds nuw %struct.yyguts_t, ptr %18, i32 0, i32 5
  %20 = load ptr, ptr %19, align 8
  %21 = load ptr, ptr %5, align 8
  %22 = getelementptr inbounds nuw %struct.yyguts_t, ptr %21, i32 0, i32 3
  %23 = load i64, ptr %22, align 8
  %24 = getelementptr ptr, ptr %20, i64 %23
  %25 = load ptr, ptr %24, align 8
  br label %27

26:                                               ; preds = %11
  br label %27

27:                                               ; preds = %26, %17
  %28 = phi ptr [ %25, %17 ], [ null, %26 ]
  %29 = icmp eq ptr %12, %28
  br i1 %29, label %30, label %38

30:                                               ; preds = %27
  %31 = load ptr, ptr %5, align 8
  %32 = getelementptr inbounds nuw %struct.yyguts_t, ptr %31, i32 0, i32 5
  %33 = load ptr, ptr %32, align 8
  %34 = load ptr, ptr %5, align 8
  %35 = getelementptr inbounds nuw %struct.yyguts_t, ptr %34, i32 0, i32 3
  %36 = load i64, ptr %35, align 8
  %37 = getelementptr ptr, ptr %33, i64 %36
  store ptr null, ptr %37, align 8
  br label %38

38:                                               ; preds = %30, %27
  %39 = load ptr, ptr %3, align 8
  %40 = getelementptr inbounds nuw %struct.yy_buffer_state, ptr %39, i32 0, i32 5
  %41 = load i32, ptr %40, align 8
  %42 = icmp ne i32 %41, 0
  br i1 %42, label %43, label %47

43:                                               ; preds = %38
  %44 = load ptr, ptr %3, align 8
  %45 = getelementptr inbounds nuw %struct.yy_buffer_state, ptr %44, i32 0, i32 1
  %46 = load ptr, ptr %45, align 8
  call void @free(ptr noundef %46) #12
  br label %47

47:                                               ; preds = %43, %38
  %48 = load ptr, ptr %3, align 8
  call void @free(ptr noundef %48) #12
  store i32 0, ptr %6, align 4
  br label %49

49:                                               ; preds = %47, %10
  call void @llvm.lifetime.end.p0(i64 8, ptr %5) #12
  %50 = load i32, ptr %6, align 4
  switch i32 %50, label %52 [
    i32 0, label %51
    i32 1, label %51
  ]

51:                                               ; preds = %49, %49
  ret void

52:                                               ; preds = %49
  unreachable
}

; Function Attrs: null_pointer_is_valid sspstrong uwtable
define hidden void @busmaster_pop_buffer_state(ptr noundef %0) #0 {
  %2 = alloca ptr, align 8
  %3 = alloca ptr, align 8
  %4 = alloca i32, align 4
  store ptr %0, ptr %2, align 8
  call void @llvm.lifetime.start.p0(i64 8, ptr %3) #12
  %5 = load ptr, ptr %2, align 8
  store ptr %5, ptr %3, align 8
  %6 = load ptr, ptr %3, align 8
  %7 = getelementptr inbounds nuw %struct.yyguts_t, ptr %6, i32 0, i32 5
  %8 = load ptr, ptr %7, align 8
  %9 = icmp ne ptr %8, null
  br i1 %9, label %10, label %20

10:                                               ; preds = %1
  %11 = load ptr, ptr %3, align 8
  %12 = getelementptr inbounds nuw %struct.yyguts_t, ptr %11, i32 0, i32 5
  %13 = load ptr, ptr %12, align 8
  %14 = load ptr, ptr %3, align 8
  %15 = getelementptr inbounds nuw %struct.yyguts_t, ptr %14, i32 0, i32 3
  %16 = load i64, ptr %15, align 8
  %17 = getelementptr ptr, ptr %13, i64 %16
  %18 = load ptr, ptr %17, align 8
  %19 = icmp ne ptr %18, null
  br i1 %19, label %22, label %21

20:                                               ; preds = %1
  br i1 false, label %22, label %21

21:                                               ; preds = %20, %10
  store i32 1, ptr %4, align 4
  br label %77

22:                                               ; preds = %20, %10
  %23 = load ptr, ptr %3, align 8
  %24 = getelementptr inbounds nuw %struct.yyguts_t, ptr %23, i32 0, i32 5
  %25 = load ptr, ptr %24, align 8
  %26 = icmp ne ptr %25, null
  br i1 %26, label %27, label %36

27:                                               ; preds = %22
  %28 = load ptr, ptr %3, align 8
  %29 = getelementptr inbounds nuw %struct.yyguts_t, ptr %28, i32 0, i32 5
  %30 = load ptr, ptr %29, align 8
  %31 = load ptr, ptr %3, align 8
  %32 = getelementptr inbounds nuw %struct.yyguts_t, ptr %31, i32 0, i32 3
  %33 = load i64, ptr %32, align 8
  %34 = getelementptr ptr, ptr %30, i64 %33
  %35 = load ptr, ptr %34, align 8
  br label %37

36:                                               ; preds = %22
  br label %37

37:                                               ; preds = %36, %27
  %38 = phi ptr [ %35, %27 ], [ null, %36 ]
  %39 = load ptr, ptr %2, align 8
  call void @busmaster__delete_buffer(ptr noundef %38, ptr noundef %39)
  %40 = load ptr, ptr %3, align 8
  %41 = getelementptr inbounds nuw %struct.yyguts_t, ptr %40, i32 0, i32 5
  %42 = load ptr, ptr %41, align 8
  %43 = load ptr, ptr %3, align 8
  %44 = getelementptr inbounds nuw %struct.yyguts_t, ptr %43, i32 0, i32 3
  %45 = load i64, ptr %44, align 8
  %46 = getelementptr ptr, ptr %42, i64 %45
  store ptr null, ptr %46, align 8
  %47 = load ptr, ptr %3, align 8
  %48 = getelementptr inbounds nuw %struct.yyguts_t, ptr %47, i32 0, i32 3
  %49 = load i64, ptr %48, align 8
  %50 = icmp ugt i64 %49, 0
  br i1 %50, label %51, label %56

51:                                               ; preds = %37
  %52 = load ptr, ptr %3, align 8
  %53 = getelementptr inbounds nuw %struct.yyguts_t, ptr %52, i32 0, i32 3
  %54 = load i64, ptr %53, align 8
  %55 = add i64 %54, -1
  store i64 %55, ptr %53, align 8
  br label %56

56:                                               ; preds = %51, %37
  %57 = load ptr, ptr %3, align 8
  %58 = getelementptr inbounds nuw %struct.yyguts_t, ptr %57, i32 0, i32 5
  %59 = load ptr, ptr %58, align 8
  %60 = icmp ne ptr %59, null
  br i1 %60, label %61, label %71

61:                                               ; preds = %56
  %62 = load ptr, ptr %3, align 8
  %63 = getelementptr inbounds nuw %struct.yyguts_t, ptr %62, i32 0, i32 5
  %64 = load ptr, ptr %63, align 8
  %65 = load ptr, ptr %3, align 8
  %66 = getelementptr inbounds nuw %struct.yyguts_t, ptr %65, i32 0, i32 3
  %67 = load i64, ptr %66, align 8
  %68 = getelementptr ptr, ptr %64, i64 %67
  %69 = load ptr, ptr %68, align 8
  %70 = icmp ne ptr %69, null
  br i1 %70, label %72, label %76

71:                                               ; preds = %56
  br i1 false, label %72, label %76

72:                                               ; preds = %71, %61
  %73 = load ptr, ptr %2, align 8
  call void @busmaster__load_buffer_state(ptr noundef %73)
  %74 = load ptr, ptr %3, align 8
  %75 = getelementptr inbounds nuw %struct.yyguts_t, ptr %74, i32 0, i32 12
  store i32 1, ptr %75, align 8
  br label %76

76:                                               ; preds = %72, %71, %61
  store i32 0, ptr %4, align 4
  br label %77

77:                                               ; preds = %76, %21
  call void @llvm.lifetime.end.p0(i64 8, ptr %3) #12
  %78 = load i32, ptr %4, align 4
  switch i32 %78, label %80 [
    i32 0, label %79
    i32 1, label %79
  ]

79:                                               ; preds = %77, %77
  ret void

80:                                               ; preds = %77
  unreachable
}